target datalayout = "e-m:e-p270:32:32-p271:32:32-p272:64:64-i64:64-i128:128-f80:128-n8:16:32:64-S128"
target triple = "x86_64-pc-linux-gnu"

%struct.ossl_param_st = type { ptr, i32, ptr, i64, i64 }

@.str = private unnamed_addr constant [10 x i8] c"TLS13-KDF\00", align 1
@.str.1 = private unnamed_addr constant [27 x i8] c"../openssl/ssl/tls13_enc.c\00", align 1
@__func__.tls13_hkdf_expand_ex = private unnamed_addr constant [21 x i8] c"tls13_hkdf_expand_ex\00", align 1
@.str.2 = private unnamed_addr constant [5 x i8] c"mode\00", align 1
@.str.3 = private unnamed_addr constant [7 x i8] c"digest\00", align 1
@.str.4 = private unnamed_addr constant [4 x i8] c"key\00", align 1
@.str.5 = private unnamed_addr constant [7 x i8] c"prefix\00", align 1
@label_prefix = internal constant [7 x i8] c"tls13 \00", align 1
@.str.6 = private unnamed_addr constant [6 x i8] c"label\00", align 1
@.str.7 = private unnamed_addr constant [5 x i8] c"data\00", align 1

; Function Attrs: nounwind uwtable
define dso_local i32 @tls13_hkdf_expand_ex(ptr noundef %0, ptr noundef %1, ptr noundef %2, ptr noundef %3, ptr noundef %4, i64 noundef %5, ptr noundef %6, i64 noundef %7, ptr noundef %8, i64 noundef %9, i32 noundef %10) #0 {
  %12 = alloca i32, align 4
  %13 = alloca ptr, align 8
  %14 = alloca ptr, align 8
  %15 = alloca ptr, align 8
  %16 = alloca ptr, align 8
  %17 = alloca ptr, align 8
  %18 = alloca i64, align 8
  %19 = alloca ptr, align 8
  %20 = alloca i64, align 8
  %21 = alloca ptr, align 8
  %22 = alloca i64, align 8
  %23 = alloca i32, align 4
  %24 = alloca ptr, align 8
  %25 = alloca ptr, align 8
  %26 = alloca [7 x %struct.ossl_param_st], align 16
  %27 = alloca ptr, align 8
  %28 = alloca i32, align 4
  %29 = alloca ptr, align 8
  %30 = alloca i32, align 4
  %31 = alloca i64, align 8
  %32 = alloca i32, align 4
  %33 = alloca %struct.ossl_param_st, align 8
  %34 = alloca %struct.ossl_param_st, align 8
  %35 = alloca %struct.ossl_param_st, align 8
  %36 = alloca %struct.ossl_param_st, align 8
  %37 = alloca %struct.ossl_param_st, align 8
  %38 = alloca %struct.ossl_param_st, align 8
  %39 = alloca %struct.ossl_param_st, align 8
  store ptr %0, ptr %13, align 8, !tbaa !4
  store ptr %1, ptr %14, align 8, !tbaa !9
  store ptr %2, ptr %15, align 8, !tbaa !11
  store ptr %3, ptr %16, align 8, !tbaa !9
  store ptr %4, ptr %17, align 8, !tbaa !9
  store i64 %5, ptr %18, align 8, !tbaa !13
  store ptr %6, ptr %19, align 8, !tbaa !9
  store i64 %7, ptr %20, align 8, !tbaa !13
  store ptr %8, ptr %21, align 8, !tbaa !9
  store i64 %9, ptr %22, align 8, !tbaa !13
  store i32 %10, ptr %23, align 4, !tbaa !15
  call void @llvm.lifetime.start.p0(i64 8, ptr %24) #5
  %40 = load ptr, ptr %13, align 8, !tbaa !4
  %41 = load ptr, ptr %14, align 8, !tbaa !9
  %42 = call ptr @EVP_KDF_fetch(ptr noundef %40, ptr noundef @.str, ptr noundef %41)
  store ptr %42, ptr %24, align 8, !tbaa !17
  call void @llvm.lifetime.start.p0(i64 8, ptr %25) #5
  call void @llvm.lifetime.start.p0(i64 280, ptr %26) #5
  call void @llvm.lifetime.start.p0(i64 8, ptr %27) #5
  %43 = getelementptr inbounds [7 x %struct.ossl_param_st], ptr %26, i64 0, i64 0
  store ptr %43, ptr %27, align 8, !tbaa !19
  call void @llvm.lifetime.start.p0(i64 4, ptr %28) #5
  store i32 2, ptr %28, align 4, !tbaa !15
  call void @llvm.lifetime.start.p0(i64 8, ptr %29) #5
  %44 = load ptr, ptr %15, align 8, !tbaa !11
  %45 = call ptr @EVP_MD_get0_name(ptr noundef %44)
  store ptr %45, ptr %29, align 8, !tbaa !9
  call void @llvm.lifetime.start.p0(i64 4, ptr %30) #5
  call void @llvm.lifetime.start.p0(i64 8, ptr %31) #5
  %46 = load ptr, ptr %24, align 8, !tbaa !17
  %47 = call ptr @EVP_KDF_CTX_new(ptr noundef %46)
  store ptr %47, ptr %25, align 8, !tbaa !21
  %48 = load ptr, ptr %24, align 8, !tbaa !17
  call void @EVP_KDF_free(ptr noundef %48)
  %49 = load ptr, ptr %25, align 8, !tbaa !21
  %50 = icmp eq ptr %49, null
  br i1 %50, label %51, label %52

51:                                               ; preds = %11
  store i32 0, ptr %12, align 4
  store i32 1, ptr %32, align 4
  br label %118

52:                                               ; preds = %11
  %53 = load i64, ptr %18, align 8, !tbaa !13
  %54 = icmp ugt i64 %53, 249
  br i1 %54, label %55, label %61

55:                                               ; preds = %52
  %56 = load i32, ptr %23, align 4, !tbaa !15
  %57 = icmp ne i32 %56, 0
  br i1 %57, label %58, label %59

58:                                               ; preds = %55
  call void @ERR_new()
  call void @ERR_set_debug(ptr noundef @.str.1, i32 noundef 59, ptr noundef @__func__.tls13_hkdf_expand_ex)
  call void (i32, i32, ptr, ...) @ERR_set_error(i32 noundef 20, i32 noundef 367, ptr noundef null)
  br label %59

59:                                               ; preds = %58, %55
  %60 = load ptr, ptr %25, align 8, !tbaa !21
  call void @EVP_KDF_CTX_free(ptr noundef %60)
  store i32 0, ptr %12, align 4
  store i32 1, ptr %32, align 4
  br label %118

61:                                               ; preds = %52
  %62 = load ptr, ptr %15, align 8, !tbaa !11
  %63 = call i32 @EVP_MD_get_size(ptr noundef %62)
  store i32 %63, ptr %30, align 4, !tbaa !15
  %64 = icmp sle i32 %63, 0
  br i1 %64, label %65, label %71

65:                                               ; preds = %61
  %66 = load ptr, ptr %25, align 8, !tbaa !21
  call void @EVP_KDF_CTX_free(ptr noundef %66)
  %67 = load i32, ptr %23, align 4, !tbaa !15
  %68 = icmp ne i32 %67, 0
  br i1 %68, label %69, label %70

69:                                               ; preds = %65
  call void @ERR_new()
  call void @ERR_set_debug(ptr noundef @.str.1, i32 noundef 68, ptr noundef @__func__.tls13_hkdf_expand_ex)
  call void (i32, i32, ptr, ...) @ERR_set_error(i32 noundef 20, i32 noundef 786691, ptr noundef null)
  br label %70

70:                                               ; preds = %69, %65
  store i32 0, ptr %12, align 4
  store i32 1, ptr %32, align 4
  br label %118

71:                                               ; preds = %61
  %72 = load i32, ptr %30, align 4, !tbaa !15
  %73 = sext i32 %72 to i64
  store i64 %73, ptr %31, align 8, !tbaa !13
  %74 = load ptr, ptr %27, align 8, !tbaa !19
  %75 = getelementptr inbounds nuw %struct.ossl_param_st, ptr %74, i32 1
  store ptr %75, ptr %27, align 8, !tbaa !19
  call void @llvm.lifetime.start.p0(i64 40, ptr %33) #5
  call void @OSSL_PARAM_construct_int(ptr dead_on_unwind writable sret(%struct.ossl_param_st) align 8 %33, ptr noundef @.str.2, ptr noundef %28)
  call void @llvm.memcpy.p0.p0.i64(ptr align 8 %74, ptr align 8 %33, i64 40, i1 false), !tbaa.struct !23
  call void @llvm.lifetime.end.p0(i64 40, ptr %33) #5
  %76 = load ptr, ptr %27, align 8, !tbaa !19
  %77 = getelementptr inbounds nuw %struct.ossl_param_st, ptr %76, i32 1
  store ptr %77, ptr %27, align 8, !tbaa !19
  call void @llvm.lifetime.start.p0(i64 40, ptr %34) #5
  %78 = load ptr, ptr %29, align 8, !tbaa !9
  call void @OSSL_PARAM_construct_utf8_string(ptr dead_on_unwind writable sret(%struct.ossl_param_st) align 8 %34, ptr noundef @.str.3, ptr noundef %78, i64 noundef 0)
  call void @llvm.memcpy.p0.p0.i64(ptr align 8 %76, ptr align 8 %34, i64 40, i1 false), !tbaa.struct !23
  call void @llvm.lifetime.end.p0(i64 40, ptr %34) #5
  %79 = load ptr, ptr %27, align 8, !tbaa !19
  %80 = getelementptr inbounds nuw %struct.ossl_param_st, ptr %79, i32 1
  store ptr %80, ptr %27, align 8, !tbaa !19
  call void @llvm.lifetime.start.p0(i64 40, ptr %35) #5
  %81 = load ptr, ptr %16, align 8, !tbaa !9
  %82 = load i64, ptr %31, align 8, !tbaa !13
  call void @OSSL_PARAM_construct_octet_string(ptr dead_on_unwind writable sret(%struct.ossl_param_st) align 8 %35, ptr noundef @.str.4, ptr noundef %81, i64 noundef %82)
  call void @llvm.memcpy.p0.p0.i64(ptr align 8 %79, ptr align 8 %35, i64 40, i1 false), !tbaa.struct !23
  call void @llvm.lifetime.end.p0(i64 40, ptr %35) #5
  %83 = load ptr, ptr %27, align 8, !tbaa !19
  %84 = getelementptr inbounds nuw %struct.ossl_param_st, ptr %83, i32 1
  store ptr %84, ptr %27, align 8, !tbaa !19
  call void @llvm.lifetime.start.p0(i64 40, ptr %36) #5
  call void @OSSL_PARAM_construct_octet_string(ptr dead_on_unwind writable sret(%struct.ossl_param_st) align 8 %36, ptr noundef @.str.5, ptr noundef @label_prefix, i64 noundef 6)
  call void @llvm.memcpy.p0.p0.i64(ptr align 8 %83, ptr align 8 %36, i64 40, i1 false), !tbaa.struct !23
  call void @llvm.lifetime.end.p0(i64 40, ptr %36) #5
  %85 = load ptr, ptr %27, align 8, !tbaa !19
  %86 = getelementptr inbounds nuw %struct.ossl_param_st, ptr %85, i32 1
  store ptr %86, ptr %27, align 8, !tbaa !19
  call void @llvm.lifetime.start.p0(i64 40, ptr %37) #5
  %87 = load ptr, ptr %17, align 8, !tbaa !9
  %88 = load i64, ptr %18, align 8, !tbaa !13
  call void @OSSL_PARAM_construct_octet_string(ptr dead_on_unwind writable sret(%struct.ossl_param_st) align 8 %37, ptr noundef @.str.6, ptr noundef %87, i64 noundef %88)
  call void @llvm.memcpy.p0.p0.i64(ptr align 8 %85, ptr align 8 %37, i64 40, i1 false), !tbaa.struct !23
  call void @llvm.lifetime.end.p0(i64 40, ptr %37) #5
  %89 = load ptr, ptr %19, align 8, !tbaa !9
  %90 = icmp ne ptr %89, null
  br i1 %90, label %91, label %96

91:                                               ; preds = %71
  %92 = load ptr, ptr %27, align 8, !tbaa !19
  %93 = getelementptr inbounds nuw %struct.ossl_param_st, ptr %92, i32 1
  store ptr %93, ptr %27, align 8, !tbaa !19
  call void @llvm.lifetime.start.p0(i64 40, ptr %38) #5
  %94 = load ptr, ptr %19, align 8, !tbaa !9
  %95 = load i64, ptr %20, align 8, !tbaa !13
  call void @OSSL_PARAM_construct_octet_string(ptr dead_on_unwind writable sret(%struct.ossl_param_st) align 8 %38, ptr noundef @.str.7, ptr noundef %94, i64 noundef %95)
  call void @llvm.memcpy.p0.p0.i64(ptr align 8 %92, ptr align 8 %38, i64 40, i1 false), !tbaa.struct !23
  call void @llvm.lifetime.end.p0(i64 40, ptr %38) #5
  br label %96

96:                                               ; preds = %91, %71
  %97 = load ptr, ptr %27, align 8, !tbaa !19
  %98 = getelementptr inbounds nuw %struct.ossl_param_st, ptr %97, i32 1
  store ptr %98, ptr %27, align 8, !tbaa !19
  call void @llvm.lifetime.start.p0(i64 40, ptr %39) #5
  call void @OSSL_PARAM_construct_end(ptr dead_on_unwind writable sret(%struct.ossl_param_st) align 8 %39)
  call void @llvm.memcpy.p0.p0.i64(ptr align 8 %97, ptr align 8 %39, i64 40, i1 false), !tbaa.struct !23
  call void @llvm.lifetime.end.p0(i64 40, ptr %39) #5
  %99 = load ptr, ptr %25, align 8, !tbaa !21
  %100 = load ptr, ptr %21, align 8, !tbaa !9
  %101 = load i64, ptr %22, align 8, !tbaa !13
  %102 = getelementptr inbounds [7 x %struct.ossl_param_st], ptr %26, i64 0, i64 0
  %103 = call i32 @EVP_KDF_derive(ptr noundef %99, ptr noundef %100, i64 noundef %101, ptr noundef %102)
  %104 = icmp sle i32 %103, 0
  %105 = zext i1 %104 to i32
  store i32 %105, ptr %30, align 4, !tbaa !15
  %106 = load ptr, ptr %25, align 8, !tbaa !21
  call void @EVP_KDF_CTX_free(ptr noundef %106)
  %107 = load i32, ptr %30, align 4, !tbaa !15
  %108 = icmp ne i32 %107, 0
  br i1 %108, label %109, label %114

109:                                              ; preds = %96
  %110 = load i32, ptr %23, align 4, !tbaa !15
  %111 = icmp ne i32 %110, 0
  br i1 %111, label %112, label %113

112:                                              ; preds = %109
  call void @ERR_new()
  call void @ERR_set_debug(ptr noundef @.str.1, i32 noundef 94, ptr noundef @__func__.tls13_hkdf_expand_ex)
  call void (i32, i32, ptr, ...) @ERR_set_error(i32 noundef 20, i32 noundef 786691, ptr noundef null)
  br label %113

113:                                              ; preds = %112, %109
  br label %114

114:                                              ; preds = %113, %96
  %115 = load i32, ptr %30, align 4, !tbaa !15
  %116 = icmp eq i32 %115, 0
  %117 = zext i1 %116 to i32
  store i32 %117, ptr %12, align 4
  store i32 1, ptr %32, align 4
  br label %118

118:                                              ; preds = %114, %70, %59, %51
  call void @llvm.lifetime.end.p0(i64 8, ptr %31) #5
  call void @llvm.lifetime.end.p0(i64 4, ptr %30) #5
  call void @llvm.lifetime.end.p0(i64 8, ptr %29) #5
  call void @llvm.lifetime.end.p0(i64 4, ptr %28) #5
  call void @llvm.lifetime.end.p0(i64 8, ptr %27) #5
  call void @llvm.lifetime.end.p0(i64 280, ptr %26) #5
  call void @llvm.lifetime.end.p0(i64 8, ptr %25) #5
  call void @llvm.lifetime.end.p0(i64 8, ptr %24) #5
  %119 = load i32, ptr %12, align 4
  ret i32 %119
}