; Function Attrs: nounwind uwtable
define dso_local range(i32 0, 2) i32 @tls13_hkdf_expand_ex(ptr noundef %0, ptr noundef %1, ptr noundef %2, ptr noundef %3, ptr noundef %4, i64 noundef %5, ptr noundef %6, i64 noundef %7, ptr noundef %8, i64 noundef %9, i32 noundef %10) local_unnamed_addr #0 {
  %12 = alloca [7 x %struct.ossl_param_st], align 16
  %13 = alloca i32, align 4
  %14 = alloca %struct.ossl_param_st, align 8
  %15 = alloca %struct.ossl_param_st, align 8
  %16 = alloca %struct.ossl_param_st, align 8
  %17 = alloca %struct.ossl_param_st, align 8
  %18 = alloca %struct.ossl_param_st, align 8
  %19 = alloca %struct.ossl_param_st, align 8
  %20 = tail call ptr @EVP_KDF_fetch(ptr noundef %0, ptr noundef nonnull @.str, ptr noundef %1) #4
  call void @llvm.lifetime.start.p0(i64 280, ptr nonnull %12) #4
  call void @llvm.lifetime.start.p0(i64 4, ptr nonnull %13) #4
  store i32 2, ptr %13, align 4, !tbaa !4
  %21 = tail call ptr @EVP_MD_get0_name(ptr noundef %2) #4
  %22 = tail call ptr @EVP_KDF_CTX_new(ptr noundef %20) #4
  tail call void @EVP_KDF_free(ptr noundef %20) #4
  %23 = icmp eq ptr %22, null
  br i1 %23, label %51, label %24

24:                                               ; preds = %11
  %25 = icmp ugt i64 %5, 249
  br i1 %25, label %26, label %29

26:                                               ; preds = %24
  %.not42 = icmp eq i32 %10, 0
  br i1 %.not42, label %28, label %27

27:                                               ; preds = %26
  tail call void @ERR_new() #4
  tail call void @ERR_set_debug(ptr noundef nonnull @.str.1, i32 noundef 59, ptr noundef nonnull @__func__.tls13_hkdf_expand_ex) #4
  tail call void (i32, i32, ptr, ...) @ERR_set_error(i32 noundef 20, i32 noundef 367, ptr noundef null) #4
  br label %28

28:                                               ; preds = %27, %26
  tail call void @EVP_KDF_CTX_free(ptr noundef nonnull %22) #4
  br label %51

29:                                               ; preds = %24
  %30 = tail call i32 @EVP_MD_get_size(ptr noundef %2) #4
  %31 = icmp slt i32 %30, 1
  br i1 %31, label %32, label %34

32:                                               ; preds = %29
  tail call void @EVP_KDF_CTX_free(ptr noundef nonnull %22) #4
  %.not41 = icmp eq i32 %10, 0
  br i1 %.not41, label %51, label %33

33:                                               ; preds = %32
  tail call void @ERR_new() #4
  tail call void @ERR_set_debug(ptr noundef nonnull @.str.1, i32 noundef 68, ptr noundef nonnull @__func__.tls13_hkdf_expand_ex) #4
  tail call void (i32, i32, ptr, ...) @ERR_set_error(i32 noundef 20, i32 noundef 786691, ptr noundef null) #4
  br label %51

34:                                               ; preds = %29
  %35 = zext nneg i32 %30 to i64
  %36 = getelementptr inbounds nuw i8, ptr %12, i64 40
  call void @OSSL_PARAM_construct_int(ptr dead_on_unwind nonnull writable sret(%struct.ossl_param_st) align 8 %12, ptr noundef nonnull @.str.2, ptr noundef nonnull %13) #4
  %37 = getelementptr inbounds nuw i8, ptr %12, i64 80
  call void @llvm.lifetime.start.p0(i64 40, ptr nonnull %14) #4
  call void @OSSL_PARAM_construct_utf8_string(ptr dead_on_unwind nonnull writable sret(%struct.ossl_param_st) align 8 %14, ptr noundef nonnull @.str.3, ptr noundef %21, i64 noundef 0) #4
  call void @llvm.memcpy.p0.p0.i64(ptr noundef nonnull align 8 dereferenceable(40) %36, ptr noundef nonnull align 8 dereferenceable(40) %14, i64 40, i1 false), !tbaa.struct !8
  call void @llvm.lifetime.end.p0(i64 40, ptr nonnull %14) #4
  %38 = getelementptr inbounds nuw i8, ptr %12, i64 120
  call void @llvm.lifetime.start.p0(i64 40, ptr nonnull %15) #4
  call void @OSSL_PARAM_construct_octet_string(ptr dead_on_unwind nonnull writable sret(%struct.ossl_param_st) align 8 %15, ptr noundef nonnull @.str.4, ptr noundef %3, i64 noundef %35) #4
  call void @llvm.memcpy.p0.p0.i64(ptr noundef nonnull align 16 dereferenceable(40) %37, ptr noundef nonnull align 8 dereferenceable(40) %15, i64 40, i1 false), !tbaa.struct !8
  call void @llvm.lifetime.end.p0(i64 40, ptr nonnull %15) #4
  %39 = getelementptr inbounds nuw i8, ptr %12, i64 160
  call void @llvm.lifetime.start.p0(i64 40, ptr nonnull %16) #4
  call void @OSSL_PARAM_construct_octet_string(ptr dead_on_unwind nonnull writable sret(%struct.ossl_param_st) align 8 %16, ptr noundef nonnull @.str.5, ptr noundef nonnull @label_prefix, i64 noundef 6) #4
  call void @llvm.memcpy.p0.p0.i64(ptr noundef nonnull align 8 dereferenceable(40) %38, ptr noundef nonnull align 8 dereferenceable(40) %16, i64 40, i1 false), !tbaa.struct !8
  call void @llvm.lifetime.end.p0(i64 40, ptr nonnull %16) #4
  %40 = getelementptr inbounds nuw i8, ptr %12, i64 200
  call void @llvm.lifetime.start.p0(i64 40, ptr nonnull %17) #4
  call void @OSSL_PARAM_construct_octet_string(ptr dead_on_unwind nonnull writable sret(%struct.ossl_param_st) align 8 %17, ptr noundef nonnull @.str.6, ptr noundef %4, i64 noundef %5) #4
  call void @llvm.memcpy.p0.p0.i64(ptr noundef nonnull align 16 dereferenceable(40) %39, ptr noundef nonnull align 8 dereferenceable(40) %17, i64 40, i1 false), !tbaa.struct !8
  call void @llvm.lifetime.end.p0(i64 40, ptr nonnull %17) #4
  %.not = icmp eq ptr %6, null
  br i1 %.not, label %43, label %41

41:                                               ; preds = %34
  %42 = getelementptr inbounds nuw i8, ptr %12, i64 240
  call void @llvm.lifetime.start.p0(i64 40, ptr nonnull %18) #4
  call void @OSSL_PARAM_construct_octet_string(ptr dead_on_unwind nonnull writable sret(%struct.ossl_param_st) align 8 %18, ptr noundef nonnull @.str.7, ptr noundef nonnull %6, i64 noundef %7) #4
  call void @llvm.memcpy.p0.p0.i64(ptr noundef nonnull align 8 dereferenceable(40) %40, ptr noundef nonnull align 8 dereferenceable(40) %18, i64 40, i1 false), !tbaa.struct !8
  call void @llvm.lifetime.end.p0(i64 40, ptr nonnull %18) #4
  br label %43

43:                                               ; preds = %41, %34
  %.036 = phi ptr [ %42, %41 ], [ %40, %34 ]
  call void @llvm.lifetime.start.p0(i64 40, ptr nonnull %19) #4
  call void @OSSL_PARAM_construct_end(ptr dead_on_unwind nonnull writable sret(%struct.ossl_param_st) align 8 %19) #4
  call void @llvm.memcpy.p0.p0.i64(ptr noundef nonnull align 8 dereferenceable(40) %.036, ptr noundef nonnull align 8 dereferenceable(40) %19, i64 40, i1 false), !tbaa.struct !8
  call void @llvm.lifetime.end.p0(i64 40, ptr nonnull %19) #4
  %44 = call i32 @EVP_KDF_derive(ptr noundef nonnull %22, ptr noundef %8, i64 noundef %9, ptr noundef nonnull %12) #4
  %45 = icmp slt i32 %44, 1
  call void @EVP_KDF_CTX_free(ptr noundef nonnull %22) #4
  %46 = icmp ne i32 %10, 0
  %or.cond = and i1 %46, %45
  br i1 %or.cond, label %47, label %48

47:                                               ; preds = %43
  call void @ERR_new() #4
  call void @ERR_set_debug(ptr noundef nonnull @.str.1, i32 noundef 94, ptr noundef nonnull @__func__.tls13_hkdf_expand_ex) #4
  call void (i32, i32, ptr, ...) @ERR_set_error(i32 noundef 20, i32 noundef 786691, ptr noundef null) #4
  br label %48

48:                                               ; preds = %47, %43
  %49 = xor i1 %45, true
  %50 = zext i1 %49 to i32
  br label %51

51:                                               ; preds = %32, %33, %11, %48, %28
  %.0 = phi i32 [ 0, %28 ], [ %50, %48 ], [ 0, %11 ], [ 0, %33 ], [ 0, %32 ]
  call void @llvm.lifetime.end.p0(i64 4, ptr nonnull %13) #4
  call void @llvm.lifetime.end.p0(i64 280, ptr nonnull %12) #4
  ret i32 %.0
}